; Function Attrs: mustprogress nounwind uwtable
define hidden noundef ptr @_ZN10JNIHandles10make_localEP10JavaThreadP7oopDescN17AllocFailStrategy13AllocFailEnumE(ptr noundef %0, ptr noundef %1, i32 noundef %2) local_unnamed_addr #1 align 2 {
  %4 = icmp eq ptr %1, null
  br i1 %4, label %9, label %5

5:                                                ; preds = %3
  %6 = getelementptr inbounds i8, ptr %0, i64 1072
  %7 = load ptr, ptr %6, align 8
  %8 = tail call noundef ptr @_ZN14JNIHandleBlock15allocate_handleEP10JavaThreadP7oopDescN17AllocFailStrategy13AllocFailEnumE(ptr noundef nonnull align 8 dereferenceable(296) %7, ptr noundef nonnull %0, ptr noundef nonnull %1, i32 noundef %2)
  br label %9

9:                                                ; preds = %3, %5
  %.0 = phi ptr [ %8, %5 ], [ null, %3 ]
  ret ptr %.0
}